; Function Attrs: mustprogress nounwind uwtable
define dso_local noundef i64 @_ZN6snappy17CompressFromIOVecEPK5iovecmPNSt7__cxx1112basic_stringIcSt11char_traitsIcESaIcEEE(ptr noundef %iov, i64 noundef %iov_cnt, ptr noundef %compressed) local_unnamed_addr #2 {
entry:
  %reader.i = alloca %"class.snappy::SnappyIOVecReader", align 8
  %writer.i = alloca %"class.snappy::UncheckedByteArraySink", align 8
  %cmp10.not = icmp eq i64 %iov_cnt, 0
  br i1 %cmp10.not, label %for.end, label %for.body

for.body:                                         ; preds = %entry, %for.body
  %i.012 = phi i64 [ %inc, %for.body ], [ 0, %entry ]
  %uncompressed_length.011 = phi i64 [ %add, %for.body ], [ 0, %entry ]
  %iov_len = getelementptr inbounds %struct.iovec, ptr %iov, i64 %i.012, i32 1
  %0 = load i64, ptr %iov_len, align 8
  %add = add i64 %0, %uncompressed_length.011
  %inc = add nuw i64 %i.012, 1
  %exitcond.not = icmp eq i64 %inc, %iov_cnt
  br i1 %exitcond.not, label %for.end, label %for.body, !llvm.loop !24

for.end:                                          ; preds = %for.body, %entry
  %uncompressed_length.0.lcssa = phi i64 [ 0, %entry ], [ %add, %for.body ]
  %add.i = add i64 %uncompressed_length.0.lcssa, 32
  %div.i = udiv i64 %uncompressed_length.0.lcssa, 6
  %add1.i = add i64 %add.i, %div.i
  tail call void @_ZNSt7__cxx1112basic_stringIcSt11char_traitsIcESaIcEE6resizeEm(ptr noundef nonnull align 8 dereferenceable(32) %compressed, i64 noundef %add1.i) #19
  %call.i = tail call noundef zeroext i1 @_ZNKSt7__cxx1112basic_stringIcSt11char_traitsIcESaIcEE5emptyEv(ptr noundef nonnull align 8 dereferenceable(32) %compressed) #19
  br i1 %call.i, label %_ZN6snappy15string_as_arrayEPNSt7__cxx1112basic_stringIcSt11char_traitsIcESaIcEEE.exit, label %cond.false.i

cond.false.i:                                     ; preds = %for.end
  %call1.i = tail call ptr @_ZNSt7__cxx1112basic_stringIcSt11char_traitsIcESaIcEE5beginEv(ptr noundef nonnull align 8 dereferenceable(32) %compressed) #19
  br label %_ZN6snappy15string_as_arrayEPNSt7__cxx1112basic_stringIcSt11char_traitsIcESaIcEEE.exit

_ZN6snappy15string_as_arrayEPNSt7__cxx1112basic_stringIcSt11char_traitsIcESaIcEEE.exit: ; preds = %for.end, %cond.false.i
  %cond.i = phi ptr [ %call1.i, %cond.false.i ], [ null, %for.end ]
  call void @llvm.lifetime.start.p0(i64 40, ptr nonnull %reader.i)
  call void @llvm.lifetime.start.p0(i64 16, ptr nonnull %writer.i)
  store ptr getelementptr inbounds ({ [7 x ptr] }, ptr @_ZTVN6snappy17SnappyIOVecReaderE, i64 0, i32 0, i64 2), ptr %reader.i, align 8
  %curr_iov_.i.i = getelementptr inbounds i8, ptr %reader.i, i64 8
  store ptr %iov, ptr %curr_iov_.i.i, align 8
  %curr_pos_.i.i = getelementptr inbounds i8, ptr %reader.i, i64 16
  %cmp.not.i.i = icmp eq i64 %uncompressed_length.0.lcssa, 0
  br i1 %cmp.not.i.i, label %if.end.critedge.i.i, label %cond.true3.i.i

cond.true3.i.i:                                   ; preds = %_ZN6snappy15string_as_arrayEPNSt7__cxx1112basic_stringIcSt11char_traitsIcESaIcEEE.exit
  %1 = load ptr, ptr %iov, align 8
  store ptr %1, ptr %curr_pos_.i.i, align 8
  %curr_size_remaining_.i.i = getelementptr inbounds i8, ptr %reader.i, i64 24
  %iov_len.i.i = getelementptr inbounds i8, ptr %iov, i64 8
  %2 = load i64, ptr %iov_len.i.i, align 8
  store i64 %2, ptr %curr_size_remaining_.i.i, align 8
  %total_size_remaining_.i.i = getelementptr inbounds i8, ptr %reader.i, i64 32
  store i64 %uncompressed_length.0.lcssa, ptr %total_size_remaining_.i.i, align 8
  %cmp9.i.i = icmp eq i64 %2, 0
  br i1 %cmp9.i.i, label %do.body.i.i.i, label %_ZN6snappy20RawCompressFromIOVecEPK5iovecmPcPm.exit

do.body.i.i.i:                                    ; preds = %cond.true3.i.i, %do.body.i.i.i
  %3 = phi ptr [ %incdec.ptr.i.i.i, %do.body.i.i.i ], [ %iov, %cond.true3.i.i ]
  %incdec.ptr.i.i.i = getelementptr inbounds i8, ptr %3, i64 16
  %iov_len.i.i.i = getelementptr inbounds i8, ptr %3, i64 24
  %4 = load i64, ptr %iov_len.i.i.i, align 8
  %cmp9.i.i.i = icmp eq i64 %4, 0
  br i1 %cmp9.i.i.i, label %do.body.i.i.i, label %_ZN6snappy17SnappyIOVecReaderC2EPK5iovecm.exit.loopexit.i, !llvm.loop !23

if.end.critedge.i.i:                              ; preds = %_ZN6snappy15string_as_arrayEPNSt7__cxx1112basic_stringIcSt11char_traitsIcESaIcEEE.exit
  call void @llvm.memset.p0.i64(ptr noundef nonnull align 8 dereferenceable(24) %curr_pos_.i.i, i8 0, i64 24, i1 false)
  br label %_ZN6snappy20RawCompressFromIOVecEPK5iovecmPcPm.exit

_ZN6snappy17SnappyIOVecReaderC2EPK5iovecm.exit.loopexit.i: ; preds = %do.body.i.i.i
  %5 = load ptr, ptr %incdec.ptr.i.i.i, align 8
  store ptr %incdec.ptr.i.i.i, ptr %curr_iov_.i.i, align 8
  store ptr %5, ptr %curr_pos_.i.i, align 8
  store i64 %4, ptr %curr_size_remaining_.i.i, align 8
  br label %_ZN6snappy20RawCompressFromIOVecEPK5iovecmPcPm.exit

_ZN6snappy20RawCompressFromIOVecEPK5iovecmPcPm.exit: ; preds = %cond.true3.i.i, %if.end.critedge.i.i, %_ZN6snappy17SnappyIOVecReaderC2EPK5iovecm.exit.loopexit.i
  store ptr getelementptr inbounds ({ [8 x ptr] }, ptr @_ZTVN6snappy22UncheckedByteArraySinkE, i64 0, i32 0, i64 2), ptr %writer.i, align 8
  %dest_.i.i = getelementptr inbounds i8, ptr %writer.i, i64 8
  store ptr %cond.i, ptr %dest_.i.i, align 8
  %call.i8 = call noundef i64 @_ZN6snappy8CompressEPNS_6SourceEPNS_4SinkE(ptr noundef nonnull %reader.i, ptr noundef nonnull %writer.i)
  %6 = load ptr, ptr %dest_.i.i, align 8
  %sub.ptr.lhs.cast.i = ptrtoint ptr %6 to i64
  %sub.ptr.rhs.cast.i = ptrtoint ptr %cond.i to i64
  %sub.ptr.sub.i = sub i64 %sub.ptr.lhs.cast.i, %sub.ptr.rhs.cast.i
  call void @_ZN6snappy22UncheckedByteArraySinkD1Ev(ptr noundef nonnull align 8 dereferenceable(16) %writer.i) #19
  call void @_ZN6snappy6SourceD2Ev(ptr noundef nonnull align 8 dereferenceable(8) %reader.i) #19
  call void @llvm.lifetime.end.p0(i64 40, ptr nonnull %reader.i)
  call void @llvm.lifetime.end.p0(i64 16, ptr nonnull %writer.i)
  %call2 = call noundef nonnull align 8 dereferenceable(32) ptr @_ZNSt7__cxx1112basic_stringIcSt11char_traitsIcESaIcEE5eraseEmm(ptr noundef nonnull align 8 dereferenceable(32) %compressed, i64 noundef %sub.ptr.sub.i, i64 noundef -1) #19
  ret i64 %sub.ptr.sub.i
}